target datalayout = "e-m:e-p270:32:32-p271:32:32-p272:64:64-i64:64-i128:128-f80:128-n8:16:32:64-S128"
target triple = "x86_64-unknown-linux-gnu"

%struct.BdrvDirtyBitmap = type { ptr, ptr, i8, ptr, ptr, i64, i8, i32, i8, i8, i8, i8, %struct.anon }
%struct.anon = type { ptr, ptr }
%struct.BlockDriverState = type { i32, i8, i8, i8, i8, i8, ptr, ptr, ptr, %struct.anon.0, i8, [4096 x i8], [4096 x i8], [4096 x i8], [16 x i8], ptr, [4096 x i8], %struct.BlockLimits, i32, i32, i32, i32, [32 x i8], %union.anon, %union.anon.1, %union.anon.2, i32, [16 x %struct.anon.3], ptr, %struct.anon.4, ptr, ptr, %struct.anon.5, ptr, ptr, i32, ptr, i64, i64, %struct.QemuMutex, %struct.anon.6, %struct.Stat64, i32, i32, i32, i32, i32, i32, %struct.QemuMutex, %struct.anon.7, %struct.CoQueue, i8, i32, i8, %struct.CoMutex, ptr, ptr }
%struct.anon.0 = type { ptr }
%struct.BlockLimits = type { i32, i64, i32, i64, i32, i32, i32, i64, i32, i64, i64, i32, i8, i32, i32, i32, i32, i32, i32, i32 }
%union.anon = type { %struct.QTailQLink }
%struct.QTailQLink = type { ptr, ptr }
%union.anon.1 = type { %struct.QTailQLink }
%union.anon.2 = type { %struct.QTailQLink }
%struct.anon.3 = type { ptr }
%struct.anon.4 = type { ptr }
%struct.anon.5 = type { ptr }
%struct.anon.6 = type { ptr }
%struct.Stat64 = type { i64 }
%struct.QemuMutex = type { %union.pthread_mutex_t, i8 }
%union.pthread_mutex_t = type { %struct.__pthread_mutex_s }
%struct.__pthread_mutex_s = type { i32, i32, i32, i32, i32, i16, i16, %struct.__pthread_internal_list }
%struct.__pthread_internal_list = type { ptr, ptr }
%struct.anon.7 = type { ptr }
%struct.CoQueue = type { %struct.anon.8 }
%struct.anon.8 = type { ptr, ptr }
%struct.CoMutex = type { i32, ptr, %struct.anon.9, %struct.anon.9, i32, i32, ptr }
%struct.anon.9 = type { ptr }

@.str.1 = private unnamed_addr constant [29 x i8] c"../qemu/block/dirty-bitmap.c\00", align 1
@__func__.bdrv_dirty_bitmap_check = private unnamed_addr constant [24 x i8] c"bdrv_dirty_bitmap_check\00", align 1
@.str.6 = private unnamed_addr constant [72 x i8] c"Bitmap '%s' is currently in use by another operation and cannot be used\00", align 1
@.str.7 = private unnamed_addr constant [47 x i8] c"Bitmap '%s' is readonly and cannot be modified\00", align 1
@.str.8 = private unnamed_addr constant [47 x i8] c"Bitmap '%s' is inconsistent and cannot be used\00", align 1
@.str.9 = private unnamed_addr constant [63 x i8] c"Try block-dirty-bitmap-remove to delete this bitmap from disk\0A\00", align 1
@__func__.bdrv_merge_dirty_bitmap = private unnamed_addr constant [24 x i8] c"bdrv_merge_dirty_bitmap\00", align 1
@.str.25 = private unnamed_addr constant [97 x i8] c"Bitmaps are of different sizes (destination size is %ld, source size is %ld) and can't be merged\00", align 1
@__func__.bdrv_dirty_bitmaps_lock = private unnamed_addr constant [24 x i8] c"bdrv_dirty_bitmaps_lock\00", align 1
@qemu_mutex_lock_func = external global ptr, align 8

; Function Attrs: nounwind sspstrong uwtable
define dso_local zeroext i1 @bdrv_dirty_bitmap_inconsistent(ptr noundef %bitmap) #0 {
entry:
  %bitmap.addr = alloca ptr, align 8
  store ptr %bitmap, ptr %bitmap.addr, align 8
  %0 = load ptr, ptr %bitmap.addr, align 8
  %inconsistent = getelementptr inbounds %struct.BdrvDirtyBitmap, ptr %0, i32 0, i32 10
  %1 = load i8, ptr %inconsistent, align 2
  %tobool = trunc i8 %1 to i1
  ret i1 %tobool
}

; Function Attrs: nounwind sspstrong uwtable
define dso_local zeroext i1 @bdrv_dirty_bitmap_readonly(ptr noundef %bitmap) #0 {
entry:
  %bitmap.addr = alloca ptr, align 8
  store ptr %bitmap, ptr %bitmap.addr, align 8
  %0 = load ptr, ptr %bitmap.addr, align 8
  %readonly = getelementptr inbounds %struct.BdrvDirtyBitmap, ptr %0, i32 0, i32 8
  %1 = load i8, ptr %readonly, align 8
  %tobool = trunc i8 %1 to i1
  ret i1 %tobool
}

; Function Attrs: nounwind sspstrong uwtable
define internal zeroext i1 @bdrv_dirty_bitmap_busy(ptr noundef %bitmap) #0 {
entry:
  %bitmap.addr = alloca ptr, align 8
  store ptr %bitmap, ptr %bitmap.addr, align 8
  %0 = load ptr, ptr %bitmap.addr, align 8
  %busy = getelementptr inbounds %struct.BdrvDirtyBitmap, ptr %0, i32 0, i32 2
  %1 = load i8, ptr %busy, align 8
  %tobool = trunc i8 %1 to i1
  ret i1 %tobool
}

; Function Attrs: nounwind sspstrong uwtable
define internal void @bdrv_dirty_bitmaps_unlock(ptr noundef %bs) #0 {
entry:
  %bs.addr = alloca ptr, align 8
  store ptr %bs, ptr %bs.addr, align 8
  %0 = load ptr, ptr %bs.addr, align 8
  %dirty_bitmap_mutex = getelementptr inbounds %struct.BlockDriverState, ptr %0, i32 0, i32 39
  call void @qemu_mutex_unlock_impl(ptr noundef %dirty_bitmap_mutex, ptr noundef @.str.1, i32 noundef 71)
  ret void
}

; Function Attrs: nounwind sspstrong uwtable
define dso_local i64 @bdrv_dirty_bitmap_size(ptr noundef %bitmap) #0 {
entry:
  %bitmap.addr = alloca ptr, align 8
  store ptr %bitmap, ptr %bitmap.addr, align 8
  %0 = load ptr, ptr %bitmap.addr, align 8
  %size = getelementptr inbounds %struct.BdrvDirtyBitmap, ptr %0, i32 0, i32 5
  %1 = load i64, ptr %size, align 8
  ret i64 %1
}

; Function Attrs: nounwind sspstrong uwtable
define dso_local i32 @bdrv_dirty_bitmap_check(ptr noundef %bitmap, i32 noundef %flags, ptr noundef %errp) #0 {
entry:
  %retval = alloca i32, align 4
  %bitmap.addr = alloca ptr, align 8
  %flags.addr = alloca i32, align 4
  %errp.addr = alloca ptr, align 8
  store ptr %bitmap, ptr %bitmap.addr, align 8
  store i32 %flags, ptr %flags.addr, align 4
  store ptr %errp, ptr %errp.addr, align 8
  %0 = load i32, ptr %flags.addr, align 4
  %and = and i32 %0, 1
  %tobool = icmp ne i32 %and, 0
  br i1 %tobool, label %land.lhs.true, label %if.end

land.lhs.true:                                    ; preds = %entry
  %1 = load ptr, ptr %bitmap.addr, align 8
  %call = call zeroext i1 @bdrv_dirty_bitmap_busy(ptr noundef %1)
  br i1 %call, label %if.then, label %if.end

if.then:                                          ; preds = %land.lhs.true
  %2 = load ptr, ptr %errp.addr, align 8
  %3 = load ptr, ptr %bitmap.addr, align 8
  %name = getelementptr inbounds %struct.BdrvDirtyBitmap, ptr %3, i32 0, i32 4
  %4 = load ptr, ptr %name, align 8
  call void (ptr, ptr, i32, ptr, ptr, ...) @error_setg_internal(ptr noundef %2, ptr noundef @.str.1, i32 noundef 183, ptr noundef @__func__.bdrv_dirty_bitmap_check, ptr noundef @.str.6, ptr noundef %4)
  store i32 -1, ptr %retval, align 4
  br label %return

if.end:                                           ; preds = %land.lhs.true, %entry
  %5 = load i32, ptr %flags.addr, align 4
  %and1 = and i32 %5, 2
  %tobool2 = icmp ne i32 %and1, 0
  br i1 %tobool2, label %land.lhs.true3, label %if.end7

land.lhs.true3:                                   ; preds = %if.end
  %6 = load ptr, ptr %bitmap.addr, align 8
  %call4 = call zeroext i1 @bdrv_dirty_bitmap_readonly(ptr noundef %6)
  br i1 %call4, label %if.then5, label %if.end7

if.then5:                                         ; preds = %land.lhs.true3
  %7 = load ptr, ptr %errp.addr, align 8
  %8 = load ptr, ptr %bitmap.addr, align 8
  %name6 = getelementptr inbounds %struct.BdrvDirtyBitmap, ptr %8, i32 0, i32 4
  %9 = load ptr, ptr %name6, align 8
  call void (ptr, ptr, i32, ptr, ptr, ...) @error_setg_internal(ptr noundef %7, ptr noundef @.str.1, i32 noundef 189, ptr noundef @__func__.bdrv_dirty_bitmap_check, ptr noundef @.str.7, ptr noundef %9)
  store i32 -1, ptr %retval, align 4
  br label %return

if.end7:                                          ; preds = %land.lhs.true3, %if.end
  %10 = load i32, ptr %flags.addr, align 4
  %and8 = and i32 %10, 4
  %tobool9 = icmp ne i32 %and8, 0
  br i1 %tobool9, label %land.lhs.true10, label %if.end14

land.lhs.true10:                                  ; preds = %if.end7
  %11 = load ptr, ptr %bitmap.addr, align 8
  %call11 = call zeroext i1 @bdrv_dirty_bitmap_inconsistent(ptr noundef %11)
  br i1 %call11, label %if.then12, label %if.end14

if.then12:                                        ; preds = %land.lhs.true10
  %12 = load ptr, ptr %errp.addr, align 8
  %13 = load ptr, ptr %bitmap.addr, align 8
  %name13 = getelementptr inbounds %struct.BdrvDirtyBitmap, ptr %13, i32 0, i32 4
  %14 = load ptr, ptr %name13, align 8
  call void (ptr, ptr, i32, ptr, ptr, ...) @error_setg_internal(ptr noundef %12, ptr noundef @.str.1, i32 noundef 196, ptr noundef @__func__.bdrv_dirty_bitmap_check, ptr noundef @.str.8, ptr noundef %14)
  %15 = load ptr, ptr %errp.addr, align 8
  call void (ptr, ptr, ...) @error_append_hint(ptr noundef %15, ptr noundef @.str.9)
  store i32 -1, ptr %retval, align 4
  br label %return

if.end14:                                         ; preds = %land.lhs.true10, %if.end7
  store i32 0, ptr %retval, align 4
  br label %return

return:                                           ; preds = %if.end14, %if.then12, %if.then5, %if.then
  %16 = load i32, ptr %retval, align 4
  ret i32 %16
}

; Function Attrs: nounwind sspstrong uwtable
define internal void @bdrv_dirty_bitmaps_lock(ptr noundef %bs) #0 {
entry:
  %bs.addr = alloca ptr, align 8
  %_f = alloca ptr, align 8
  %tmp = alloca ptr, align 8
  %atomic-temp = alloca ptr, align 8
  store ptr %bs, ptr %bs.addr, align 8
  br label %while.cond

while.cond:                                       ; preds = %do.end, %entry
  br i1 false, label %while.body, label %while.end

while.body:                                       ; preds = %while.cond
  br label %do.body

do.body:                                          ; preds = %while.body
  call void @g_assertion_message_expr(ptr noundef null, ptr noundef @.str.1, i32 noundef 66, ptr noundef @__func__.bdrv_dirty_bitmaps_lock, ptr noundef null) #10
  unreachable

do.end:                                           ; No predecessors!
  br label %while.cond

while.end:                                        ; preds = %while.cond
  %0 = load atomic i64, ptr @qemu_mutex_lock_func monotonic, align 8
  store i64 %0, ptr %atomic-temp, align 8
  %1 = load ptr, ptr %atomic-temp, align 8
  store ptr %1, ptr %tmp, align 8
  %2 = load ptr, ptr %tmp, align 8
  store ptr %2, ptr %_f, align 8
  %3 = load ptr, ptr %_f, align 8
  %4 = load ptr, ptr %bs.addr, align 8
  %dirty_bitmap_mutex = getelementptr inbounds %struct.BlockDriverState, ptr %4, i32 0, i32 39
  call void %3(ptr noundef %dirty_bitmap_mutex, ptr noundef @.str.1, i32 noundef 66)
  ret void
}

; Function Attrs: nounwind sspstrong uwtable
define dso_local zeroext i1 @bdrv_merge_dirty_bitmap(ptr noundef %dest, ptr noundef %src, ptr noundef %backup, ptr noundef %errp) #0 {
entry:
  %dest.addr = alloca ptr, align 8
  %src.addr = alloca ptr, align 8
  %backup.addr = alloca ptr, align 8
  %errp.addr = alloca ptr, align 8
  %ret = alloca i8, align 1
  store ptr %dest, ptr %dest.addr, align 8
  store ptr %src, ptr %src.addr, align 8
  store ptr %backup, ptr %backup.addr, align 8
  store ptr %errp, ptr %errp.addr, align 8
  store i8 0, ptr %ret, align 1
  %0 = load ptr, ptr %dest.addr, align 8
  %bs = getelementptr inbounds %struct.BdrvDirtyBitmap, ptr %0, i32 0, i32 0
  %1 = load ptr, ptr %bs, align 8
  call void @bdrv_dirty_bitmaps_lock(ptr noundef %1)
  %2 = load ptr, ptr %src.addr, align 8
  %bs1 = getelementptr inbounds %struct.BdrvDirtyBitmap, ptr %2, i32 0, i32 0
  %3 = load ptr, ptr %bs1, align 8
  %4 = load ptr, ptr %dest.addr, align 8
  %bs2 = getelementptr inbounds %struct.BdrvDirtyBitmap, ptr %4, i32 0, i32 0
  %5 = load ptr, ptr %bs2, align 8
  %cmp = icmp ne ptr %3, %5
  br i1 %cmp, label %if.then, label %if.end

if.then:                                          ; preds = %entry
  %6 = load ptr, ptr %src.addr, align 8
  %bs3 = getelementptr inbounds %struct.BdrvDirtyBitmap, ptr %6, i32 0, i32 0
  %7 = load ptr, ptr %bs3, align 8
  call void @bdrv_dirty_bitmaps_lock(ptr noundef %7)
  br label %if.end

if.end:                                           ; preds = %if.then, %entry
  %8 = load ptr, ptr %dest.addr, align 8
  %9 = load ptr, ptr %errp.addr, align 8
  %call = call i32 @bdrv_dirty_bitmap_check(ptr noundef %8, i32 noundef 7, ptr noundef %9)
  %tobool = icmp ne i32 %call, 0
  br i1 %tobool, label %if.then4, label %if.end5

if.then4:                                         ; preds = %if.end
  br label %out

if.end5:                                          ; preds = %if.end
  %10 = load ptr, ptr %src.addr, align 8
  %11 = load ptr, ptr %errp.addr, align 8
  %call6 = call i32 @bdrv_dirty_bitmap_check(ptr noundef %10, i32 noundef 5, ptr noundef %11)
  %tobool7 = icmp ne i32 %call6, 0
  br i1 %tobool7, label %if.then8, label %if.end9

if.then8:                                         ; preds = %if.end5
  br label %out

if.end9:                                          ; preds = %if.end5
  %12 = load ptr, ptr %src.addr, align 8
  %call10 = call i64 @bdrv_dirty_bitmap_size(ptr noundef %12)
  %13 = load ptr, ptr %dest.addr, align 8
  %call11 = call i64 @bdrv_dirty_bitmap_size(ptr noundef %13)
  %cmp12 = icmp ne i64 %call10, %call11
  br i1 %cmp12, label %if.then13, label %if.end16

if.then13:                                        ; preds = %if.end9
  %14 = load ptr, ptr %errp.addr, align 8
  %15 = load ptr, ptr %dest.addr, align 8
  %call14 = call i64 @bdrv_dirty_bitmap_size(ptr noundef %15)
  %16 = load ptr, ptr %src.addr, align 8
  %call15 = call i64 @bdrv_dirty_bitmap_size(ptr noundef %16)
  call void (ptr, ptr, i32, ptr, ptr, ...) @error_setg_internal(ptr noundef %14, ptr noundef @.str.1, i32 noundef 834, ptr noundef @__func__.bdrv_merge_dirty_bitmap, ptr noundef @.str.25, i64 noundef %call14, i64 noundef %call15)
  br label %out

if.end16:                                         ; preds = %if.end9
  %17 = load ptr, ptr %dest.addr, align 8
  %18 = load ptr, ptr %src.addr, align 8
  %19 = load ptr, ptr %backup.addr, align 8
  call void @bdrv_dirty_bitmap_merge_internal(ptr noundef %17, ptr noundef %18, ptr noundef %19, i1 noundef zeroext false)
  store i8 1, ptr %ret, align 1
  br label %out

out:                                              ; preds = %if.end16, %if.then13, %if.then8, %if.then4
  %20 = load ptr, ptr %dest.addr, align 8
  %bs17 = getelementptr inbounds %struct.BdrvDirtyBitmap, ptr %20, i32 0, i32 0
  %21 = load ptr, ptr %bs17, align 8
  call void @bdrv_dirty_bitmaps_unlock(ptr noundef %21)
  %22 = load ptr, ptr %src.addr, align 8
  %bs18 = getelementptr inbounds %struct.BdrvDirtyBitmap, ptr %22, i32 0, i32 0
  %23 = load ptr, ptr %bs18, align 8
  %24 = load ptr, ptr %dest.addr, align 8
  %bs19 = getelementptr inbounds %struct.BdrvDirtyBitmap, ptr %24, i32 0, i32 0
  %25 = load ptr, ptr %bs19, align 8
  %cmp20 = icmp ne ptr %23, %25
  br i1 %cmp20, label %if.then21, label %if.end23

if.then21:                                        ; preds = %out
  %26 = load ptr, ptr %src.addr, align 8
  %bs22 = getelementptr inbounds %struct.BdrvDirtyBitmap, ptr %26, i32 0, i32 0
  %27 = load ptr, ptr %bs22, align 8
  call void @bdrv_dirty_bitmaps_unlock(ptr noundef %27)
  br label %if.end23

if.end23:                                         ; preds = %if.then21, %out
  %28 = load i8, ptr %ret, align 1
  %tobool24 = trunc i8 %28 to i1
  ret i1 %tobool24
}