; Function Attrs: nounwind sspstrong uwtable
define dso_local noundef zeroext i1 @bdrv_merge_dirty_bitmap(ptr noundef captures(none) %dest, ptr noundef readonly captures(none) %src, ptr noundef %backup, ptr noundef %errp) local_unnamed_addr #0 {
entry:
  %0 = load ptr, ptr %dest, align 8
  %1 = load atomic i64, ptr @qemu_mutex_lock_func monotonic, align 8
  %2 = inttoptr i64 %1 to ptr
  %dirty_bitmap_mutex.i = getelementptr inbounds nuw i8, ptr %0, i64 16904
  tail call void %2(ptr noundef nonnull %dirty_bitmap_mutex.i, ptr noundef nonnull @.str.1, i32 noundef 66) #14
  %3 = load ptr, ptr %src, align 8
  %4 = load ptr, ptr %dest, align 8
  %cmp.not = icmp eq ptr %3, %4
  br i1 %cmp.not, label %if.end, label %if.then

if.then:                                          ; preds = %entry
  %5 = load atomic i64, ptr @qemu_mutex_lock_func monotonic, align 8
  %6 = inttoptr i64 %5 to ptr
  %dirty_bitmap_mutex.i18 = getelementptr inbounds nuw i8, ptr %3, i64 16904
  tail call void %6(ptr noundef nonnull %dirty_bitmap_mutex.i18, ptr noundef nonnull @.str.1, i32 noundef 66) #14
  br label %if.end

if.end:                                           ; preds = %if.then, %entry
  %7 = getelementptr i8, ptr %dest, i64 16
  %bitmap.val.i = load i8, ptr %7, align 8
  %tobool.i.i = trunc i8 %bitmap.val.i to i1
  br i1 %tobool.i.i, label %if.then.i, label %if.end.i

if.then.i:                                        ; preds = %if.end
  %name.i = getelementptr inbounds nuw i8, ptr %dest, i64 32
  %8 = load ptr, ptr %name.i, align 8
  tail call void (ptr, ptr, i32, ptr, ptr, ...) @error_setg_internal(ptr noundef %errp, ptr noundef nonnull @.str.1, i32 noundef 183, ptr noundef nonnull @__func__.bdrv_dirty_bitmap_check, ptr noundef nonnull @.str.6, ptr noundef %8) #14
  br label %out

if.end.i:                                         ; preds = %if.end
  %readonly.i.i = getelementptr inbounds nuw i8, ptr %dest, i64 56
  %9 = load i8, ptr %readonly.i.i, align 8
  %tobool.i11.i = trunc i8 %9 to i1
  br i1 %tobool.i11.i, label %if.then5.i, label %if.end7.i

if.then5.i:                                       ; preds = %if.end.i
  %name6.i = getelementptr inbounds nuw i8, ptr %dest, i64 32
  %10 = load ptr, ptr %name6.i, align 8
  tail call void (ptr, ptr, i32, ptr, ptr, ...) @error_setg_internal(ptr noundef %errp, ptr noundef nonnull @.str.1, i32 noundef 189, ptr noundef nonnull @__func__.bdrv_dirty_bitmap_check, ptr noundef nonnull @.str.7, ptr noundef %10) #14
  br label %out

if.end7.i:                                        ; preds = %if.end.i
  %inconsistent.i.i = getelementptr inbounds nuw i8, ptr %dest, i64 58
  %11 = load i8, ptr %inconsistent.i.i, align 2
  %tobool.i12.i = trunc i8 %11 to i1
  br i1 %tobool.i12.i, label %if.then12.i, label %if.end5

if.then12.i:                                      ; preds = %if.end7.i
  %name13.i = getelementptr inbounds nuw i8, ptr %dest, i64 32
  %12 = load ptr, ptr %name13.i, align 8
  tail call void (ptr, ptr, i32, ptr, ptr, ...) @error_setg_internal(ptr noundef %errp, ptr noundef nonnull @.str.1, i32 noundef 196, ptr noundef nonnull @__func__.bdrv_dirty_bitmap_check, ptr noundef nonnull @.str.8, ptr noundef %12) #14
  tail call void (ptr, ptr, ...) @error_append_hint(ptr noundef %errp, ptr noundef nonnull @.str.9) #14
  br label %out

if.end5:                                          ; preds = %if.end7.i
  %13 = getelementptr i8, ptr %src, i64 16
  %bitmap.val.i19 = load i8, ptr %13, align 8
  %tobool.i.i20 = trunc i8 %bitmap.val.i19 to i1
  br i1 %tobool.i.i20, label %if.then.i28, label %if.end.i21

if.then.i28:                                      ; preds = %if.end5
  %name.i29 = getelementptr inbounds nuw i8, ptr %src, i64 32
  %14 = load ptr, ptr %name.i29, align 8
  tail call void (ptr, ptr, i32, ptr, ptr, ...) @error_setg_internal(ptr noundef %errp, ptr noundef nonnull @.str.1, i32 noundef 183, ptr noundef nonnull @__func__.bdrv_dirty_bitmap_check, ptr noundef nonnull @.str.6, ptr noundef %14) #14
  br label %out

if.end.i21:                                       ; preds = %if.end5
  %inconsistent.i.i23 = getelementptr inbounds nuw i8, ptr %src, i64 58
  %15 = load i8, ptr %inconsistent.i.i23, align 2
  %tobool.i12.i24 = trunc i8 %15 to i1
  br i1 %tobool.i12.i24, label %if.then12.i26, label %if.end9

if.then12.i26:                                    ; preds = %if.end.i21
  %name13.i27 = getelementptr inbounds nuw i8, ptr %src, i64 32
  %16 = load ptr, ptr %name13.i27, align 8
  tail call void (ptr, ptr, i32, ptr, ptr, ...) @error_setg_internal(ptr noundef %errp, ptr noundef nonnull @.str.1, i32 noundef 196, ptr noundef nonnull @__func__.bdrv_dirty_bitmap_check, ptr noundef nonnull @.str.8, ptr noundef %16) #14
  tail call void (ptr, ptr, ...) @error_append_hint(ptr noundef %errp, ptr noundef nonnull @.str.9) #14
  br label %out

if.end9:                                          ; preds = %if.end.i21
  %size.i = getelementptr inbounds nuw i8, ptr %src, i64 40
  %17 = load i64, ptr %size.i, align 8
  %size.i31 = getelementptr inbounds nuw i8, ptr %dest, i64 40
  %18 = load i64, ptr %size.i31, align 8
  %cmp12.not = icmp eq i64 %17, %18
  br i1 %cmp12.not, label %if.end16, label %if.then13

if.then13:                                        ; preds = %if.end9
  tail call void (ptr, ptr, i32, ptr, ptr, ...) @error_setg_internal(ptr noundef %errp, ptr noundef nonnull @.str.1, i32 noundef 834, ptr noundef nonnull @__func__.bdrv_merge_dirty_bitmap, ptr noundef nonnull @.str.25, i64 noundef %18, i64 noundef %17) #14
  br label %out

if.end16:                                         ; preds = %if.end9
  tail call void @bdrv_dirty_bitmap_merge_internal(ptr noundef nonnull %dest, ptr noundef nonnull %src, ptr noundef %backup, i1 noundef zeroext false)
  br label %out

out:                                              ; preds = %if.then12.i26, %if.then.i28, %if.then12.i, %if.then5.i, %if.then.i, %if.end16, %if.then13
  %ret.0 = phi i1 [ false, %if.then13 ], [ true, %if.end16 ], [ false, %if.then.i ], [ false, %if.then5.i ], [ false, %if.then12.i ], [ false, %if.then.i28 ], [ false, %if.then12.i26 ]
  %19 = load ptr, ptr %dest, align 8
  %dirty_bitmap_mutex.i34 = getelementptr inbounds nuw i8, ptr %19, i64 16904
  tail call void @qemu_mutex_unlock_impl(ptr noundef nonnull %dirty_bitmap_mutex.i34, ptr noundef nonnull @.str.1, i32 noundef 71) #14
  %20 = load ptr, ptr %src, align 8
  %21 = load ptr, ptr %dest, align 8
  %cmp20.not = icmp eq ptr %20, %21
  br i1 %cmp20.not, label %if.end23, label %if.then21

if.then21:                                        ; preds = %out
  %dirty_bitmap_mutex.i35 = getelementptr inbounds nuw i8, ptr %20, i64 16904
  tail call void @qemu_mutex_unlock_impl(ptr noundef nonnull %dirty_bitmap_mutex.i35, ptr noundef nonnull @.str.1, i32 noundef 71) #14
  br label %if.end23

if.end23:                                         ; preds = %if.then21, %out
  ret i1 %ret.0
}